target datalayout = "e-m:e-p270:32:32-p271:32:32-p272:64:64-i64:64-i128:128-f80:128-n8:16:32:64-S128"
target triple = "x86_64-pc-linux-gnu"

%struct.ossl_param_st = type { ptr, i32, ptr, i64, i64 }

@.str.53 = private unnamed_addr constant [31 x i8] c"../openssl/test/evp_kdf_test.c\00", align 1
@.str.70 = private unnamed_addr constant [5 x i8] c"pass\00", align 1
@.str.71 = private unnamed_addr constant [5 x i8] c"salt\00", align 1
@.str.72 = private unnamed_addr constant [5 x i8] c"iter\00", align 1
@.str.73 = private unnamed_addr constant [7 x i8] c"digest\00", align 1
@.str.138 = private unnamed_addr constant [6 x i8] c"pkcs5\00", align 1

; Function Attrs: nounwind uwtable
define internal ptr @construct_pbkdf2_params(ptr noundef %0, ptr noundef %1, ptr noundef %2, ptr noundef %3, ptr noundef %4) #0 {
  %6 = alloca ptr, align 8
  %7 = alloca ptr, align 8
  %8 = alloca ptr, align 8
  %9 = alloca ptr, align 8
  %10 = alloca ptr, align 8
  %11 = alloca ptr, align 8
  %12 = alloca ptr, align 8
  %13 = alloca ptr, align 8
  %14 = alloca i32, align 4
  %15 = alloca %struct.ossl_param_st, align 8
  %16 = alloca %struct.ossl_param_st, align 8
  %17 = alloca %struct.ossl_param_st, align 8
  %18 = alloca %struct.ossl_param_st, align 8
  %19 = alloca %struct.ossl_param_st, align 8
  %20 = alloca %struct.ossl_param_st, align 8
  store ptr %0, ptr %7, align 8, !tbaa !18
  store ptr %1, ptr %8, align 8, !tbaa !18
  store ptr %2, ptr %9, align 8, !tbaa !18
  store ptr %3, ptr %10, align 8, !tbaa !40
  store ptr %4, ptr %11, align 8, !tbaa !40
  call void @llvm.lifetime.start.p0(i64 8, ptr %12) #6
  %21 = call noalias ptr @CRYPTO_malloc(i64 noundef 240, ptr noundef @.str.53, i32 noundef 599)
  store ptr %21, ptr %12, align 8, !tbaa !13
  call void @llvm.lifetime.start.p0(i64 8, ptr %13) #6
  %22 = load ptr, ptr %12, align 8, !tbaa !13
  store ptr %22, ptr %13, align 8, !tbaa !13
  %23 = load ptr, ptr %12, align 8, !tbaa !13
  %24 = icmp eq ptr %23, null
  br i1 %24, label %25, label %26

25:                                               ; preds = %5
  store ptr null, ptr %6, align 8
  store i32 1, ptr %14, align 4
  br label %48

26:                                               ; preds = %5
  %27 = load ptr, ptr %13, align 8, !tbaa !13
  %28 = getelementptr inbounds nuw %struct.ossl_param_st, ptr %27, i32 1
  store ptr %28, ptr %13, align 8, !tbaa !13
  call void @llvm.lifetime.start.p0(i64 40, ptr %15) #6
  %29 = load ptr, ptr %7, align 8, !tbaa !18
  %30 = load ptr, ptr %7, align 8, !tbaa !18
  %31 = call i64 @strlen(ptr noundef %30) #7
  call void @OSSL_PARAM_construct_octet_string(ptr dead_on_unwind writable sret(%struct.ossl_param_st) align 8 %15, ptr noundef @.str.70, ptr noundef %29, i64 noundef %31)
  call void @llvm.memcpy.p0.p0.i64(ptr align 8 %27, ptr align 8 %15, i64 40, i1 false), !tbaa.struct !17
  call void @llvm.lifetime.end.p0(i64 40, ptr %15) #6
  %32 = load ptr, ptr %13, align 8, !tbaa !13
  %33 = getelementptr inbounds nuw %struct.ossl_param_st, ptr %32, i32 1
  store ptr %33, ptr %13, align 8, !tbaa !13
  call void @llvm.lifetime.start.p0(i64 40, ptr %16) #6
  %34 = load ptr, ptr %9, align 8, !tbaa !18
  %35 = load ptr, ptr %9, align 8, !tbaa !18
  %36 = call i64 @strlen(ptr noundef %35) #7
  call void @OSSL_PARAM_construct_octet_string(ptr dead_on_unwind writable sret(%struct.ossl_param_st) align 8 %16, ptr noundef @.str.71, ptr noundef %34, i64 noundef %36)
  call void @llvm.memcpy.p0.p0.i64(ptr align 8 %32, ptr align 8 %16, i64 40, i1 false), !tbaa.struct !17
  call void @llvm.lifetime.end.p0(i64 40, ptr %16) #6
  %37 = load ptr, ptr %13, align 8, !tbaa !13
  %38 = getelementptr inbounds nuw %struct.ossl_param_st, ptr %37, i32 1
  store ptr %38, ptr %13, align 8, !tbaa !13
  call void @llvm.lifetime.start.p0(i64 40, ptr %17) #6
  %39 = load ptr, ptr %10, align 8, !tbaa !40
  call void @OSSL_PARAM_construct_uint(ptr dead_on_unwind writable sret(%struct.ossl_param_st) align 8 %17, ptr noundef @.str.72, ptr noundef %39)
  call void @llvm.memcpy.p0.p0.i64(ptr align 8 %37, ptr align 8 %17, i64 40, i1 false), !tbaa.struct !17
  call void @llvm.lifetime.end.p0(i64 40, ptr %17) #6
  %40 = load ptr, ptr %13, align 8, !tbaa !13
  %41 = getelementptr inbounds nuw %struct.ossl_param_st, ptr %40, i32 1
  store ptr %41, ptr %13, align 8, !tbaa !13
  call void @llvm.lifetime.start.p0(i64 40, ptr %18) #6
  %42 = load ptr, ptr %8, align 8, !tbaa !18
  call void @OSSL_PARAM_construct_utf8_string(ptr dead_on_unwind writable sret(%struct.ossl_param_st) align 8 %18, ptr noundef @.str.73, ptr noundef %42, i64 noundef 0)
  call void @llvm.memcpy.p0.p0.i64(ptr align 8 %40, ptr align 8 %18, i64 40, i1 false), !tbaa.struct !17
  call void @llvm.lifetime.end.p0(i64 40, ptr %18) #6
  %43 = load ptr, ptr %13, align 8, !tbaa !13
  %44 = getelementptr inbounds nuw %struct.ossl_param_st, ptr %43, i32 1
  store ptr %44, ptr %13, align 8, !tbaa !13
  call void @llvm.lifetime.start.p0(i64 40, ptr %19) #6
  %45 = load ptr, ptr %11, align 8, !tbaa !40
  call void @OSSL_PARAM_construct_int(ptr dead_on_unwind writable sret(%struct.ossl_param_st) align 8 %19, ptr noundef @.str.138, ptr noundef %45)
  call void @llvm.memcpy.p0.p0.i64(ptr align 8 %43, ptr align 8 %19, i64 40, i1 false), !tbaa.struct !17
  call void @llvm.lifetime.end.p0(i64 40, ptr %19) #6
  %46 = load ptr, ptr %13, align 8, !tbaa !13
  call void @llvm.lifetime.start.p0(i64 40, ptr %20) #6
  call void @OSSL_PARAM_construct_end(ptr dead_on_unwind writable sret(%struct.ossl_param_st) align 8 %20)
  call void @llvm.memcpy.p0.p0.i64(ptr align 8 %46, ptr align 8 %20, i64 40, i1 false), !tbaa.struct !17
  call void @llvm.lifetime.end.p0(i64 40, ptr %20) #6
  %47 = load ptr, ptr %12, align 8, !tbaa !13
  store ptr %47, ptr %6, align 8
  store i32 1, ptr %14, align 4
  br label %48

48:                                               ; preds = %26, %25
  call void @llvm.lifetime.end.p0(i64 8, ptr %13) #6
  call void @llvm.lifetime.end.p0(i64 8, ptr %12) #6
  %49 = load ptr, ptr %6, align 8
  ret ptr %49
}